; Function Attrs: nounwind uwtable
define internal noundef i32 @freeEntry(ptr noundef %0, ptr readnone captures(none) %1) #0 {
  %3 = getelementptr inbounds nuw i8, ptr %0, i64 72
  %4 = load ptr, ptr %3, align 8, !tbaa !79
  %5 = tail call i32 @RotatingTree_Enum(ptr noundef %4, ptr noundef nonnull @freeSubEntry, ptr noundef null) #5
  %6 = getelementptr inbounds nuw i8, ptr %0, i64 24
  %7 = load ptr, ptr %6, align 8, !tbaa !81
  %8 = load i32, ptr %7, align 8, !tbaa !9
  %.not.i = icmp sgt i32 %8, -1
  br i1 %.not.i, label %9, label %Py_DECREF.exit

9:                                                ; preds = %2
  %10 = add nsw i32 %8, -1
  store i32 %10, ptr %7, align 8, !tbaa !9
  %11 = icmp eq i32 %10, 0
  br i1 %11, label %12, label %Py_DECREF.exit

12:                                               ; preds = %9
  tail call void @_Py_Dealloc(ptr noundef nonnull %7) #5
  br label %Py_DECREF.exit

Py_DECREF.exit:                                   ; preds = %2, %9, %12
  tail call void @PyMem_Free(ptr noundef nonnull %0) #5
  ret i32 0
}